target datalayout = "e-m:e-p270:32:32-p271:32:32-p272:64:64-i64:64-i128:128-f80:128-n8:16:32:64-S128"
target triple = "x86_64-pc-linux-gnu"

%struct.hf_register_info = type { ptr, %struct._header_field_info }
%struct._header_field_info = type { ptr, ptr, i32, i32, ptr, i64, ptr, i32, i32, i32, i32, ptr }

@osi_handle = internal global ptr null, align 8
@osi_juniper_handle = internal global ptr null, align 8
@osi_tpkt_handle = internal global ptr null, align 8
@proto_register_osi.hf = internal global [1 x %struct.hf_register_info] [%struct.hf_register_info { ptr @hf_osi_nlpid, %struct._header_field_info { ptr @.str.34, ptr @.str.35, i32 4, i32 2, ptr @nlpid_vals, i64 0, ptr null, i32 -1, i32 0, i32 0, i32 -1, ptr null } }], align 16
@.str.36 = private unnamed_addr constant [4 x i8] c"OSI\00", align 1
@.str.37 = private unnamed_addr constant [4 x i8] c"osi\00", align 1
@proto_osi = hidden global i32 0, align 4
@.str.38 = private unnamed_addr constant [11 x i8] c"osinl.incl\00", align 1
@.str.39 = private unnamed_addr constant [15 x i8] c"OSI incl NLPID\00", align 1
@osinl_incl_subdissector_table = internal global ptr null, align 8
@.str.40 = private unnamed_addr constant [11 x i8] c"osinl.excl\00", align 1
@.str.41 = private unnamed_addr constant [15 x i8] c"OSI excl NLPID\00", align 1
@osinl_excl_subdissector_table = internal global ptr null, align 8
@.str.42 = private unnamed_addr constant [16 x i8] c"tpkt_reassemble\00", align 1
@.str.43 = private unnamed_addr constant [36 x i8] c"Reassemble segmented TPKT datagrams\00", align 1
@.str.44 = private unnamed_addr constant [55 x i8] c"Whether segmented TPKT datagrams should be reassembled\00", align 1
@tpkt_desegment = internal global i8 0, align 1
@.str.45 = private unnamed_addr constant [12 x i8] c"osi_juniper\00", align 1
@.str.46 = private unnamed_addr constant [9 x i8] c"osi_tpkt\00", align 1

; Function Attrs: null_pointer_is_valid sspstrong uwtable
define hidden void @proto_register_osi() #0 {
  %1 = alloca ptr, align 8
  call void @llvm.lifetime.start.p0(i64 8, ptr %1) #4
  %2 = call i32 @proto_register_protocol(ptr noundef @.str.36, ptr noundef @.str.36, ptr noundef @.str.37)
  store i32 %2, ptr @proto_osi, align 4
  %3 = load i32, ptr @proto_osi, align 4
  call void @proto_register_field_array(i32 noundef %3, ptr noundef @proto_register_osi.hf, i32 noundef 1)
  %4 = load i32, ptr @proto_osi, align 4
  %5 = call ptr @register_dissector_table(ptr noundef @.str.38, ptr noundef @.str.39, i32 noundef %4, i32 noundef 4, i32 noundef 2)
  store ptr %5, ptr @osinl_incl_subdissector_table, align 8
  %6 = load i32, ptr @proto_osi, align 4
  %7 = call ptr @register_dissector_table(ptr noundef @.str.40, ptr noundef @.str.41, i32 noundef %6, i32 noundef 4, i32 noundef 2)
  store ptr %7, ptr @osinl_excl_subdissector_table, align 8
  %8 = load i32, ptr @proto_osi, align 4
  %9 = call ptr @prefs_register_protocol(i32 noundef %8, ptr noundef null)
  store ptr %9, ptr %1, align 8
  %10 = load ptr, ptr %1, align 8
  call void @prefs_register_bool_preference(ptr noundef %10, ptr noundef @.str.42, ptr noundef @.str.43, ptr noundef @.str.44, ptr noundef @tpkt_desegment)
  %11 = load i32, ptr @proto_osi, align 4
  %12 = call ptr @register_dissector(ptr noundef @.str.37, ptr noundef @dissect_osi, i32 noundef %11)
  store ptr %12, ptr @osi_handle, align 8
  %13 = load i32, ptr @proto_osi, align 4
  %14 = call ptr @register_dissector(ptr noundef @.str.45, ptr noundef @dissect_osi_juniper, i32 noundef %13)
  store ptr %14, ptr @osi_juniper_handle, align 8
  %15 = load i32, ptr @proto_osi, align 4
  %16 = call ptr @register_dissector(ptr noundef @.str.46, ptr noundef @dissect_osi_tpkt, i32 noundef %15)
  store ptr %16, ptr @osi_tpkt_handle, align 8
  call void @llvm.lifetime.end.p0(i64 8, ptr %1) #4
  ret void
}