; Function Attrs: null_pointer_is_valid sspstrong uwtable
define hidden void @proto_register_osi() local_unnamed_addr #0 {
  %1 = tail call i32 @proto_register_protocol(ptr noundef nonnull @.str.36, ptr noundef nonnull @.str.36, ptr noundef nonnull @.str.37)
  store i32 %1, ptr @proto_osi, align 4
  tail call void @proto_register_field_array(i32 noundef %1, ptr noundef nonnull @proto_register_osi.hf, i32 noundef 1)
  %2 = load i32, ptr @proto_osi, align 4
  %3 = tail call ptr @register_dissector_table(ptr noundef nonnull @.str.38, ptr noundef nonnull @.str.39, i32 noundef %2, i32 noundef 4, i32 noundef 2)
  store ptr %3, ptr @osinl_incl_subdissector_table, align 8
  %4 = load i32, ptr @proto_osi, align 4
  %5 = tail call ptr @register_dissector_table(ptr noundef nonnull @.str.40, ptr noundef nonnull @.str.41, i32 noundef %4, i32 noundef 4, i32 noundef 2)
  store ptr %5, ptr @osinl_excl_subdissector_table, align 8
  %6 = load i32, ptr @proto_osi, align 4
  %7 = tail call ptr @prefs_register_protocol(i32 noundef %6, ptr noundef null)
  tail call void @prefs_register_bool_preference(ptr noundef %7, ptr noundef nonnull @.str.42, ptr noundef nonnull @.str.43, ptr noundef nonnull @.str.44, ptr noundef nonnull @tpkt_desegment)
  %8 = load i32, ptr @proto_osi, align 4
  %9 = tail call ptr @register_dissector(ptr noundef nonnull @.str.37, ptr noundef nonnull @dissect_osi, i32 noundef %8)
  store ptr %9, ptr @osi_handle, align 8
  %10 = load i32, ptr @proto_osi, align 4
  %11 = tail call ptr @register_dissector(ptr noundef nonnull @.str.45, ptr noundef nonnull @dissect_osi_juniper, i32 noundef %10)
  store ptr %11, ptr @osi_juniper_handle, align 8
  %12 = load i32, ptr @proto_osi, align 4
  %13 = tail call ptr @register_dissector(ptr noundef nonnull @.str.46, ptr noundef nonnull @dissect_osi_tpkt, i32 noundef %12)
  store ptr %13, ptr @osi_tpkt_handle, align 8
  ret void
}